; Function Attrs: nounwind uwtable
define range(i32 1, 0) i32 @wolfSSL_NoKeyShares(ptr noundef %0) local_unnamed_addr #0 {
  %2 = icmp eq ptr %0, null
  br i1 %2, label %10, label %3

3:                                                ; preds = %1
  %4 = getelementptr inbounds nuw i8, ptr %0, i64 1024
  %5 = load i64, ptr %4, align 8
  %6 = and i64 %5, 48
  %7 = icmp eq i64 %6, 0
  br i1 %7, label %10, label %8

8:                                                ; preds = %3
  %9 = tail call i32 @TLSX_KeyShare_Empty(ptr noundef nonnull %0) #11
  %. = tail call i32 @llvm.umax.i32(i32 %9, i32 1)
  br label %10

10:                                               ; preds = %8, %3, %1
  %.0 = phi i32 [ -173, %1 ], [ -344, %3 ], [ %., %8 ]
  ret i32 %.0
}